target datalayout = "e-m:e-p270:32:32-p271:32:32-p272:64:64-i64:64-i128:128-f80:128-n8:16:32:64-S128"
target triple = "x86_64-pc-linux-gnu"

%struct._ColorData = type { ptr, i32, ptr, ptr, ptr, ptr, ptr, ptr, ptr, ptr, i32, i32 }

@std_odas_computed = global i32 0, align 4
@std_img_oda_red = global [8 x [8 x i8]] zeroinitializer, align 16
@std_img_oda_green = global [8 x [8 x i8]] zeroinitializer, align 16
@std_img_oda_blue = global [8 x [8 x i8]] zeroinitializer, align 16

; Function Attrs: nounwind uwtable
define hidden void @initDitherTables(ptr noundef %0) #0 {
  %2 = alloca ptr, align 8
  store ptr %0, ptr %2, align 8
  %3 = load i32, ptr @std_odas_computed, align 4
  %4 = icmp ne i32 %3, 0
  br i1 %4, label %5, label %12

5:                                                ; preds = %1
  %6 = load ptr, ptr %2, align 8
  %7 = getelementptr inbounds %struct._ColorData, ptr %6, i32 0, i32 6
  store ptr @std_img_oda_red, ptr %7, align 8
  %8 = load ptr, ptr %2, align 8
  %9 = getelementptr inbounds %struct._ColorData, ptr %8, i32 0, i32 7
  store ptr @std_img_oda_green, ptr %9, align 8
  %10 = load ptr, ptr %2, align 8
  %11 = getelementptr inbounds %struct._ColorData, ptr %10, i32 0, i32 8
  store ptr @std_img_oda_blue, ptr %11, align 8
  br label %20

12:                                               ; preds = %1
  %13 = load ptr, ptr %2, align 8
  %14 = getelementptr inbounds %struct._ColorData, ptr %13, i32 0, i32 6
  store ptr @std_img_oda_red, ptr %14, align 8
  %15 = load ptr, ptr %2, align 8
  %16 = getelementptr inbounds %struct._ColorData, ptr %15, i32 0, i32 7
  store ptr @std_img_oda_green, ptr %16, align 8
  %17 = load ptr, ptr %2, align 8
  %18 = getelementptr inbounds %struct._ColorData, ptr %17, i32 0, i32 8
  store ptr @std_img_oda_blue, ptr %18, align 8
  %19 = load ptr, ptr %2, align 8
  call void @make_dither_arrays(i32 noundef 256, ptr noundef %19)
  store i32 1, ptr @std_odas_computed, align 4
  br label %20

20:                                               ; preds = %12, %5
  ret void
}