; Function Attrs: nounwind uwtable
define hidden void @initDitherTables(ptr nocapture noundef %0) local_unnamed_addr #4 {
  %2 = load i32, ptr @std_odas_computed, align 4
  %.not = icmp eq i32 %2, 0
  %3 = getelementptr inbounds i8, ptr %0, i64 48
  store ptr @std_img_oda_red, ptr %3, align 8
  %4 = getelementptr inbounds i8, ptr %0, i64 56
  store ptr @std_img_oda_green, ptr %4, align 8
  %5 = getelementptr inbounds i8, ptr %0, i64 64
  store ptr @std_img_oda_blue, ptr %5, align 8
  br i1 %.not, label %6, label %7

6:                                                ; preds = %1
  tail call void @make_dither_arrays(i32 noundef 256, ptr noundef %0)
  store i32 1, ptr @std_odas_computed, align 4
  br label %7

7:                                                ; preds = %1, %6
  ret void
}